target datalayout = "e-m:e-p270:32:32-p271:32:32-p272:64:64-i64:64-i128:128-f80:128-n8:16:32:64-S128"
target triple = "x86_64-pc-linux-gnu"

%struct.JNINativeInterface_ = type { ptr, ptr, ptr, ptr, ptr, ptr, ptr, ptr, ptr, ptr, ptr, ptr, ptr, ptr, ptr, ptr, ptr, ptr, ptr, ptr, ptr, ptr, ptr, ptr, ptr, ptr, ptr, ptr, ptr, ptr, ptr, ptr, ptr, ptr, ptr, ptr, ptr, ptr, ptr, ptr, ptr, ptr, ptr, ptr, ptr, ptr, ptr, ptr, ptr, ptr, ptr, ptr, ptr, ptr, ptr, ptr, ptr, ptr, ptr, ptr, ptr, ptr, ptr, ptr, ptr, ptr, ptr, ptr, ptr, ptr, ptr, ptr, ptr, ptr, ptr, ptr, ptr, ptr, ptr, ptr, ptr, ptr, ptr, ptr, ptr, ptr, ptr, ptr, ptr, ptr, ptr, ptr, ptr, ptr, ptr, ptr, ptr, ptr, ptr, ptr, ptr, ptr, ptr, ptr, ptr, ptr, ptr, ptr, ptr, ptr, ptr, ptr, ptr, ptr, ptr, ptr, ptr, ptr, ptr, ptr, ptr, ptr, ptr, ptr, ptr, ptr, ptr, ptr, ptr, ptr, ptr, ptr, ptr, ptr, ptr, ptr, ptr, ptr, ptr, ptr, ptr, ptr, ptr, ptr, ptr, ptr, ptr, ptr, ptr, ptr, ptr, ptr, ptr, ptr, ptr, ptr, ptr, ptr, ptr, ptr, ptr, ptr, ptr, ptr, ptr, ptr, ptr, ptr, ptr, ptr, ptr, ptr, ptr, ptr, ptr, ptr, ptr, ptr, ptr, ptr, ptr, ptr, ptr, ptr, ptr, ptr, ptr, ptr, ptr, ptr, ptr, ptr, ptr, ptr, ptr, ptr, ptr, ptr, ptr, ptr, ptr, ptr, ptr, ptr, ptr, ptr, ptr, ptr, ptr, ptr, ptr, ptr, ptr, ptr, ptr, ptr, ptr, ptr, ptr, ptr, ptr, ptr, ptr, ptr, ptr, ptr, ptr, ptr, ptr, ptr, ptr, ptr, ptr, ptr, ptr }
%struct.GtkFileFilterInfo = type { i32, ptr, ptr, ptr, ptr }

@filenameFilterCallbackMethodID = internal global ptr null, align 8
@jvm = internal global ptr null, align 8

; Function Attrs: nounwind uwtable
define internal i32 @filenameFilterCallback(ptr noundef %0, ptr noundef %1) #0 {
  %3 = alloca i32, align 4
  %4 = alloca ptr, align 8
  %5 = alloca ptr, align 8
  %6 = alloca ptr, align 8
  %7 = alloca ptr, align 8
  store ptr %0, ptr %4, align 8
  store ptr %1, ptr %5, align 8
  %8 = load ptr, ptr @jvm, align 8
  %9 = call ptr @JNU_GetEnv(ptr noundef %8, i32 noundef 65538)
  store ptr %9, ptr %6, align 8
  %10 = load ptr, ptr %6, align 8
  %11 = load ptr, ptr %10, align 8
  %12 = getelementptr inbounds %struct.JNINativeInterface_, ptr %11, i32 0, i32 167
  %13 = load ptr, ptr %12, align 8
  %14 = load ptr, ptr %6, align 8
  %15 = load ptr, ptr %4, align 8
  %16 = getelementptr inbounds %struct.GtkFileFilterInfo, ptr %15, i32 0, i32 1
  %17 = load ptr, ptr %16, align 8
  %18 = call ptr %13(ptr noundef %14, ptr noundef %17)
  store ptr %18, ptr %7, align 8
  br label %19

19:                                               ; preds = %2
  %20 = load ptr, ptr %6, align 8
  %21 = load ptr, ptr %20, align 8
  %22 = getelementptr inbounds %struct.JNINativeInterface_, ptr %21, i32 0, i32 228
  %23 = load ptr, ptr %22, align 8
  %24 = load ptr, ptr %6, align 8
  %25 = call zeroext i8 %23(ptr noundef %24)
  %26 = icmp ne i8 %25, 0
  br i1 %26, label %27, label %28

27:                                               ; preds = %19
  store i32 0, ptr %3, align 4
  br label %40

28:                                               ; preds = %19
  br label %29

29:                                               ; preds = %28
  %30 = load ptr, ptr %6, align 8
  %31 = load ptr, ptr %30, align 8
  %32 = getelementptr inbounds %struct.JNINativeInterface_, ptr %31, i32 0, i32 37
  %33 = load ptr, ptr %32, align 8
  %34 = load ptr, ptr %6, align 8
  %35 = load ptr, ptr %5, align 8
  %36 = load ptr, ptr @filenameFilterCallbackMethodID, align 8
  %37 = load ptr, ptr %7, align 8
  %38 = call zeroext i8 (ptr, ptr, ptr, ...) %33(ptr noundef %34, ptr noundef %35, ptr noundef %36, ptr noundef %37)
  %39 = zext i8 %38 to i32
  store i32 %39, ptr %3, align 4
  br label %40

40:                                               ; preds = %29, %27
  %41 = load i32, ptr %3, align 4
  ret i32 %41
}