; Function Attrs: nounwind uwtable
define internal range(i32 0, 256) i32 @filenameFilterCallback(ptr nocapture noundef readonly %0, ptr noundef %1) #0 {
  %3 = load ptr, ptr @jvm, align 8
  %4 = tail call ptr @JNU_GetEnv(ptr noundef %3, i32 noundef 65538) #5
  %5 = load ptr, ptr %4, align 8
  %6 = getelementptr inbounds i8, ptr %5, i64 1336
  %7 = load ptr, ptr %6, align 8
  %8 = getelementptr inbounds i8, ptr %0, i64 8
  %9 = load ptr, ptr %8, align 8
  %10 = tail call ptr %7(ptr noundef nonnull %4, ptr noundef %9) #5
  %11 = load ptr, ptr %4, align 8
  %12 = getelementptr inbounds i8, ptr %11, i64 1824
  %13 = load ptr, ptr %12, align 8
  %14 = tail call zeroext i8 %13(ptr noundef nonnull %4) #5
  %.not = icmp eq i8 %14, 0
  br i1 %.not, label %15, label %22

15:                                               ; preds = %2
  %16 = load ptr, ptr %4, align 8
  %17 = getelementptr inbounds i8, ptr %16, i64 296
  %18 = load ptr, ptr %17, align 8
  %19 = load ptr, ptr @filenameFilterCallbackMethodID, align 8
  %20 = tail call zeroext i8 (ptr, ptr, ptr, ...) %18(ptr noundef nonnull %4, ptr noundef %1, ptr noundef %19, ptr noundef %10) #5
  %21 = zext i8 %20 to i32
  br label %22

22:                                               ; preds = %2, %15
  %.0 = phi i32 [ %21, %15 ], [ 0, %2 ]
  ret i32 %.0
}